target datalayout = "e-m:e-p270:32:32-p271:32:32-p272:64:64-i64:64-i128:128-f80:128-n8:16:32:64-S128"
target triple = "x86_64-pc-linux-gnu"

%struct.AVCodecContext = type { ptr, i32, i32, ptr, i32, i32, ptr, ptr, ptr, i64, i32, i32, ptr, i32, %struct.AVRational, %struct.AVRational, %struct.AVRational, i32, i32, i32, i32, i32, %struct.AVRational, i32, i32, i32, i32, i32, i32, i32, i32, i32, i32, i32, ptr, ptr, i32, float, float, float, float, float, float, float, float, float, i32, i32, i32, i32, i32, i32, i32, i32, i32, i32, i32, i32, ptr, ptr, ptr, i32, i32, i32, i32, i32, i32, i32, i32, i32, i32, %struct.AVChannelLayout, i32, i32, i32, i32, i32, i32, i32, i32, ptr, i32, i32, i32, float, float, i32, i32, i32, i32, i32, ptr, i64, i64, float, float, i32, i32, ptr, ptr, i32, i32, i32, i32, i32, ptr, ptr, ptr, ptr, i32, i32, [8 x i64], i32, i32, i32, i32, i32, i32, i32, ptr, ptr, i32, i32, i32, i32, i32, i32, i32, i32, i32, i32, ptr, ptr, i32, i32, ptr, ptr, ptr, ptr, i32, i32, i64, i32, i32, i64, ptr, i64, ptr, i32, ptr, i32 }
%struct.AVRational = type { i32, i32 }
%struct.AVChannelLayout = type { i32, i32, %union.anon, ptr }
%union.anon = type { i64 }
%struct.IDCTDSPContext = type { ptr, ptr, ptr, ptr, ptr, ptr, [64 x i8], i32, i32 }

; Function Attrs: cold nounwind optsize uwtable
define void @ff_xvid_idct_init(ptr noundef %0, ptr noundef %1) #2 {
  %3 = alloca ptr, align 8
  %4 = alloca ptr, align 8
  %5 = alloca i32, align 4
  %6 = alloca i32, align 4
  store ptr %0, ptr %3, align 8, !tbaa !19
  store ptr %1, ptr %4, align 8, !tbaa !21
  call void @llvm.lifetime.start.p0(i64 4, ptr %5) #4
  %7 = load ptr, ptr %4, align 8, !tbaa !21
  %8 = getelementptr inbounds nuw %struct.AVCodecContext, ptr %7, i32 0, i32 115
  %9 = load i32, ptr %8, align 4, !tbaa !23
  %10 = icmp sgt i32 %9, 8
  %11 = zext i1 %10 to i32
  store i32 %11, ptr %5, align 4, !tbaa !9
  %12 = load i32, ptr %5, align 4, !tbaa !9
  %13 = icmp ne i32 %12, 0
  br i1 %13, label %29, label %14

14:                                               ; preds = %2
  %15 = load ptr, ptr %4, align 8, !tbaa !21
  %16 = getelementptr inbounds nuw %struct.AVCodecContext, ptr %15, i32 0, i32 130
  %17 = load i32, ptr %16, align 4, !tbaa !40
  %18 = icmp ne i32 %17, 0
  br i1 %18, label %29, label %19

19:                                               ; preds = %14
  %20 = load ptr, ptr %4, align 8, !tbaa !21
  %21 = getelementptr inbounds nuw %struct.AVCodecContext, ptr %20, i32 0, i32 113
  %22 = load i32, ptr %21, align 4, !tbaa !41
  %23 = icmp eq i32 %22, 0
  br i1 %23, label %30, label %24

24:                                               ; preds = %19
  %25 = load ptr, ptr %4, align 8, !tbaa !21
  %26 = getelementptr inbounds nuw %struct.AVCodecContext, ptr %25, i32 0, i32 113
  %27 = load i32, ptr %26, align 4, !tbaa !41
  %28 = icmp eq i32 %27, 14
  br i1 %28, label %30, label %29

29:                                               ; preds = %24, %14, %2
  store i32 1, ptr %6, align 4
  br label %51

30:                                               ; preds = %24, %19
  %31 = load ptr, ptr %4, align 8, !tbaa !21
  %32 = getelementptr inbounds nuw %struct.AVCodecContext, ptr %31, i32 0, i32 113
  %33 = load i32, ptr %32, align 4, !tbaa !41
  %34 = icmp eq i32 %33, 14
  br i1 %34, label %35, label %44

35:                                               ; preds = %30
  %36 = load ptr, ptr %3, align 8, !tbaa !19
  %37 = getelementptr inbounds nuw %struct.IDCTDSPContext, ptr %36, i32 0, i32 4
  store ptr @xvid_idct_put, ptr %37, align 8, !tbaa !42
  %38 = load ptr, ptr %3, align 8, !tbaa !19
  %39 = getelementptr inbounds nuw %struct.IDCTDSPContext, ptr %38, i32 0, i32 5
  store ptr @xvid_idct_add, ptr %39, align 8, !tbaa !44
  %40 = load ptr, ptr %3, align 8, !tbaa !19
  %41 = getelementptr inbounds nuw %struct.IDCTDSPContext, ptr %40, i32 0, i32 3
  store ptr @ff_xvid_idct, ptr %41, align 8, !tbaa !45
  %42 = load ptr, ptr %3, align 8, !tbaa !19
  %43 = getelementptr inbounds nuw %struct.IDCTDSPContext, ptr %42, i32 0, i32 7
  store i32 0, ptr %43, align 8, !tbaa !46
  br label %44

44:                                               ; preds = %35, %30
  %45 = load ptr, ptr %3, align 8, !tbaa !19
  %46 = getelementptr inbounds nuw %struct.IDCTDSPContext, ptr %45, i32 0, i32 6
  %47 = getelementptr inbounds [64 x i8], ptr %46, i64 0, i64 0
  %48 = load ptr, ptr %3, align 8, !tbaa !19
  %49 = getelementptr inbounds nuw %struct.IDCTDSPContext, ptr %48, i32 0, i32 7
  %50 = load i32, ptr %49, align 8, !tbaa !46
  call void @ff_init_scantable_permutation(ptr noundef %47, i32 noundef %50)
  store i32 0, ptr %6, align 4
  br label %51

51:                                               ; preds = %44, %29
  call void @llvm.lifetime.end.p0(i64 4, ptr %5) #4
  %52 = load i32, ptr %6, align 4
  switch i32 %52, label %54 [
    i32 0, label %53
    i32 1, label %53
  ]

53:                                               ; preds = %51, %51
  ret void

54:                                               ; preds = %51
  unreachable
}