; Function Attrs: cold nounwind optsize uwtable
define void @ff_xvid_idct_init(ptr noundef %0, ptr noundef readonly captures(none) %1) local_unnamed_addr #2 {
  %3 = getelementptr inbounds nuw i8, ptr %1, i64 652
  %4 = load i32, ptr %3, align 4, !tbaa !14
  %5 = icmp sgt i32 %4, 8
  br i1 %5, label %20, label %6

6:                                                ; preds = %2
  %7 = getelementptr inbounds nuw i8, ptr %1, i64 724
  %8 = load i32, ptr %7, align 4, !tbaa !34
  %.not = icmp eq i32 %8, 0
  br i1 %.not, label %9, label %20

9:                                                ; preds = %6
  %10 = getelementptr inbounds nuw i8, ptr %1, i64 644
  %11 = load i32, ptr %10, align 4, !tbaa !35
  switch i32 %11, label %20 [
    i32 14, label %12
    i32 0, label %._crit_edge
  ]

._crit_edge:                                      ; preds = %9
  %.phi.trans.insert = getelementptr inbounds nuw i8, ptr %0, i64 112
  %.pre = load i32, ptr %.phi.trans.insert, align 8, !tbaa !36
  br label %17

12:                                               ; preds = %9
  %13 = getelementptr inbounds nuw i8, ptr %0, i64 32
  store ptr @xvid_idct_put, ptr %13, align 8, !tbaa !38
  %14 = getelementptr inbounds nuw i8, ptr %0, i64 40
  store ptr @xvid_idct_add, ptr %14, align 8, !tbaa !39
  %15 = getelementptr inbounds nuw i8, ptr %0, i64 24
  store ptr @ff_xvid_idct, ptr %15, align 8, !tbaa !40
  %16 = getelementptr inbounds nuw i8, ptr %0, i64 112
  store i32 0, ptr %16, align 8, !tbaa !36
  br label %17

17:                                               ; preds = %._crit_edge, %12
  %18 = phi i32 [ %.pre, %._crit_edge ], [ 0, %12 ]
  %19 = getelementptr inbounds nuw i8, ptr %0, i64 48
  tail call void @ff_init_scantable_permutation(ptr noundef nonnull %19, i32 noundef %18) #5
  br label %20

20:                                               ; preds = %9, %2, %6, %17
  ret void
}